target datalayout = "e-m:e-p270:32:32-p271:32:32-p272:64:64-i64:64-i128:128-f80:128-n8:16:32:64-S128"
target triple = "x86_64-pc-linux-gnu"

%struct._cms_iccprofile_struct = type { ptr, ptr, %struct.tm, i32, i32, i32, i32, i32, i32, i32, i32, i32, i32, i64, i32, %union.cmsProfileID, i32, [100 x i32], [100 x i32], [100 x i32], [100 x i32], [100 x i32], [100 x ptr], [100 x ptr], i32, ptr }
%struct.tm = type { i32, i32, i32, i32, i32, i32, i32, i32, i32, i64, ptr }
%union.cmsProfileID = type { [4 x i32] }

; Function Attrs: nounwind uwtable
define hidden i32 @cmsGetTagSignature(ptr noundef %0, i32 noundef %1) #0 {
  %3 = alloca i32, align 4
  %4 = alloca ptr, align 8
  %5 = alloca i32, align 4
  %6 = alloca ptr, align 8
  store ptr %0, ptr %4, align 8
  store i32 %1, ptr %5, align 4
  %7 = load ptr, ptr %4, align 8
  store ptr %7, ptr %6, align 8
  %8 = load i32, ptr %5, align 4
  %9 = load ptr, ptr %6, align 8
  %10 = getelementptr inbounds %struct._cms_iccprofile_struct, ptr %9, i32 0, i32 16
  %11 = load i32, ptr %10, align 4
  %12 = icmp ugt i32 %8, %11
  br i1 %12, label %13, label %14

13:                                               ; preds = %2
  store i32 0, ptr %3, align 4
  br label %25

14:                                               ; preds = %2
  %15 = load i32, ptr %5, align 4
  %16 = icmp uge i32 %15, 100
  br i1 %16, label %17, label %18

17:                                               ; preds = %14
  store i32 0, ptr %3, align 4
  br label %25

18:                                               ; preds = %14
  %19 = load ptr, ptr %6, align 8
  %20 = getelementptr inbounds %struct._cms_iccprofile_struct, ptr %19, i32 0, i32 17
  %21 = load i32, ptr %5, align 4
  %22 = zext i32 %21 to i64
  %23 = getelementptr inbounds [100 x i32], ptr %20, i64 0, i64 %22
  %24 = load i32, ptr %23, align 4
  store i32 %24, ptr %3, align 4
  br label %25

25:                                               ; preds = %18, %17, %13
  %26 = load i32, ptr %3, align 4
  ret i32 %26
}