; Function Attrs: mustprogress nofree norecurse nosync nounwind willreturn memory(argmem: read) uwtable
define hidden i32 @cmsGetTagSignature(ptr nocapture noundef readonly %0, i32 noundef %1) local_unnamed_addr #10 {
  %3 = getelementptr inbounds i8, ptr %0, i64 140
  %4 = load i32, ptr %3, align 4
  %5 = icmp ult i32 %4, %1
  %6 = icmp ugt i32 %1, 99
  %or.cond = or i1 %6, %5
  br i1 %or.cond, label %12, label %7

7:                                                ; preds = %2
  %8 = getelementptr inbounds i8, ptr %0, i64 144
  %9 = zext nneg i32 %1 to i64
  %10 = getelementptr inbounds [100 x i32], ptr %8, i64 0, i64 %9
  %11 = load i32, ptr %10, align 4
  br label %12

12:                                               ; preds = %2, %7
  %.0 = phi i32 [ %11, %7 ], [ 0, %2 ]
  ret i32 %.0
}